; ModuleID = '44/1188.c'
source_filename = "44/1188.c"
target datalayout = "e-m:e-p270:32:32-p271:32:32-p272:64:64-i64:64-f80:128-n8:16:32:64-S128"
target triple = "x86_64-pc-linux-gnu"

@b = dso_local global [6 x i32] zeroinitializer, align 16
@j = dso_local global i32 0, align 4
@i = common dso_local global i32 0, align 4
@.str = private unnamed_addr constant [3 x i8] c"%d\00", align 1
@.str.1 = private unnamed_addr constant [2 x i8] c"\0A\00", align 1
@.str.2 = private unnamed_addr constant [3 x i8] c"%s\00", align 1

; Function Attrs: noinline nounwind uwtable
define dso_local void @main() #0 {
  %1 = alloca [100 x i8], align 16
  br label %2

2:                                                ; preds = %5, %0
  %3 = load i32, i32* @j, align 4
  %4 = icmp slt i32 %3, 6
  br i1 %4, label %5, label %9

5:                                                ; preds = %2
  %6 = getelementptr inbounds [100 x i8], [100 x i8]* %1, i64 0, i64 0
  call void @fan(i8* %6)
  %7 = load i32, i32* @j, align 4
  %8 = add nsw i32 %7, 1
  store i32 %8, i32* @j, align 4
  br label %2

9:                                                ; preds = %2
  store i32 0, i32* @i, align 4
  br label %10

10:                                               ; preds = %20, %9
  %11 = load i32, i32* @i, align 4
  %12 = icmp slt i32 %11, 6
  br i1 %12, label %13, label %23

13:                                               ; preds = %10
  %14 = load i32, i32* @i, align 4
  %15 = sext i32 %14 to i64
  %16 = getelementptr inbounds [6 x i32], [6 x i32]* @b, i64 0, i64 %15
  %17 = load i32, i32* %16, align 4
  %18 = call i32 (i8*, ...) @printf(i8* getelementptr inbounds ([3 x i8], [3 x i8]* @.str, i64 0, i64 0), i32 %17)
  %19 = call i32 (i8*, ...) @printf(i8* getelementptr inbounds ([2 x i8], [2 x i8]* @.str.1, i64 0, i64 0))
  br label %20

20:                                               ; preds = %13
  %21 = load i32, i32* @i, align 4
  %22 = add nsw i32 %21, 1
  store i32 %22, i32* @i, align 4
  br label %10

23:                                               ; preds = %10
  ret void
}

; Function Attrs: noinline nounwind uwtable
define dso_local void @fan(i8* %0) #0 {
  %2 = alloca i8*, align 8
  %3 = alloca i32, align 4
  %4 = alloca i32, align 4
  store i8* %0, i8** %2, align 8
  %5 = load i8*, i8** %2, align 8
  %6 = call i32 (i8*, ...) @__isoc99_scanf(i8* getelementptr inbounds ([3 x i8], [3 x i8]* @.str.2, i64 0, i64 0), i8* %5)
  %7 = load i8*, i8** %2, align 8
  %8 = call i64 @strlen(i8* %7) #3
  %9 = trunc i64 %8 to i32
  store i32 %9, i32* %3, align 4
  store i32 0, i32* %4, align 4
  br label %10

10:                                               ; preds = %78, %1
  %11 = load i32, i32* %4, align 4
  %12 = load i32, i32* %3, align 4
  %13 = icmp slt i32 %11, %12
  br i1 %13, label %14, label %81

14:                                               ; preds = %10
  %15 = load i8*, i8** %2, align 8
  %16 = getelementptr inbounds i8, i8* %15, i64 0
  %17 = load i8, i8* %16, align 1
  %18 = sext i8 %17 to i32
  %19 = icmp ne i32 %18, 45
  br i1 %19, label %20, label %49

20:                                               ; preds = %14
  store i32 0, i32* %4, align 4
  br label %21

21:                                               ; preds = %45, %20
  %22 = load i32, i32* %4, align 4
  %23 = load i32, i32* %3, align 4
  %24 = icmp slt i32 %22, %23
  br i1 %24, label %25, label %48

25:                                               ; preds = %21
  %26 = load i32, i32* @j, align 4
  %27 = sext i32 %26 to i64
  %28 = getelementptr inbounds [6 x i32], [6 x i32]* @b, i64 0, i64 %27
  %29 = load i32, i32* %28, align 4
  %30 = mul nsw i32 %29, 10
  %31 = load i8*, i8** %2, align 8
  %32 = load i32, i32* %3, align 4
  %33 = load i32, i32* %4, align 4
  %34 = sub nsw i32 %32, %33
  %35 = sub nsw i32 %34, 1
  %36 = sext i32 %35 to i64
  %37 = getelementptr inbounds i8, i8* %31, i64 %36
  %38 = load i8, i8* %37, align 1
  %39 = sext i8 %38 to i32
  %40 = add nsw i32 %30, %39
  %41 = sub nsw i32 %40, 48
  %42 = load i32, i32* @j, align 4
  %43 = sext i32 %42 to i64
  %44 = getelementptr inbounds [6 x i32], [6 x i32]* @b, i64 0, i64 %43
  store i32 %41, i32* %44, align 4
  br label %45

45:                                               ; preds = %25
  %46 = load i32, i32* %4, align 4
  %47 = add nsw i32 %46, 1
  store i32 %47, i32* %4, align 4
  br label %21

48:                                               ; preds = %21
  br label %77

49:                                               ; preds = %14
  store i32 1, i32* %4, align 4
  br label %50

50:                                               ; preds = %73, %49
  %51 = load i32, i32* %4, align 4
  %52 = load i32, i32* %3, align 4
  %53 = icmp slt i32 %51, %52
  br i1 %53, label %54, label %76

54:                                               ; preds = %50
  %55 = load i32, i32* @j, align 4
  %56 = sext i32 %55 to i64
  %57 = getelementptr inbounds [6 x i32], [6 x i32]* @b, i64 0, i64 %56
  %58 = load i32, i32* %57, align 4
  %59 = mul nsw i32 %58, 10
  %60 = load i8*, i8** %2, align 8
  %61 = load i32, i32* %3, align 4
  %62 = load i32, i32* %4, align 4
  %63 = sub nsw i32 %61, %62
  %64 = sext i32 %63 to i64
  %65 = getelementptr inbounds i8, i8* %60, i64 %64
  %66 = load i8, i8* %65, align 1
  %67 = sext i8 %66 to i32
  %68 = sub nsw i32 %67, 48
  %69 = sub nsw i32 %59, %68
  %70 = load i32, i32* @j, align 4
  %71 = sext i32 %70 to i64
  %72 = getelementptr inbounds [6 x i32], [6 x i32]* @b, i64 0, i64 %71
  store i32 %69, i32* %72, align 4
  br label %73

73:                                               ; preds = %54
  %74 = load i32, i32* %4, align 4
  %75 = add nsw i32 %74, 1
  store i32 %75, i32* %4, align 4
  br label %50

76:                                               ; preds = %50
  br label %77

77:                                               ; preds = %76, %48
  br label %78

78:                                               ; preds = %77
  %79 = load i32, i32* %4, align 4
  %80 = add nsw i32 %79, 1
  store i32 %80, i32* %4, align 4
  br label %10

81:                                               ; preds = %10
  ret void
}

declare dso_local i32 @printf(i8*, ...) #1

declare dso_local i32 @__isoc99_scanf(i8*, ...) #1

; Function Attrs: nounwind readonly
declare dso_local i64 @strlen(i8*) #2


!llvm.module.flags = !{!0}
!llvm.ident = !{!1}

!0 = !{i32 1, !"wchar_size", i32 4}
!1 = !{!"clang version 10.0.0-4ubuntu1 "}
